target datalayout = "e-m:e-p270:32:32-p271:32:32-p272:64:64-i64:64-i128:128-f80:128-n8:16:32:64-S128"
target triple = "x86_64-pc-linux-gnu"

%struct.zstream_funcs = type { ptr, ptr, ptr }
%struct.zstream = type { i64, i64, i64, i64, %struct.z_stream_s, ptr }
%struct.z_stream_s = type { ptr, i32, i64, ptr, i32, i64, ptr, ptr, ptr, ptr, ptr, i32, i64, i64 }

@.str.20 = private unnamed_addr constant [7 x i8] c"1.2.11\00", align 1
@inflate_funcs = internal constant %struct.zstream_funcs { ptr @inflateReset, ptr @inflateEnd, ptr @inflate }, align 8

; Function Attrs: nounwind sspstrong uwtable
define internal void @zstream_init(ptr noundef %0, ptr noundef %1) #0 {
  %3 = alloca ptr, align 8
  %4 = alloca ptr, align 8
  store ptr %0, ptr %3, align 8, !tbaa !21
  store ptr %1, ptr %4, align 8, !tbaa !114
  %5 = load ptr, ptr %3, align 8, !tbaa !21
  %6 = getelementptr inbounds nuw %struct.zstream, ptr %5, i32 0, i32 0
  store i64 0, ptr %6, align 8, !tbaa !33
  %7 = load ptr, ptr %3, align 8, !tbaa !21
  %8 = getelementptr inbounds nuw %struct.zstream, ptr %7, i32 0, i32 1
  store i64 4, ptr %8, align 8, !tbaa !35
  %9 = load ptr, ptr %3, align 8, !tbaa !21
  %10 = getelementptr inbounds nuw %struct.zstream, ptr %9, i32 0, i32 2
  store i64 4, ptr %10, align 8, !tbaa !28
  %11 = call i64 @rb_mutex_new()
  %12 = load ptr, ptr %3, align 8, !tbaa !21
  %13 = getelementptr inbounds nuw %struct.zstream, ptr %12, i32 0, i32 3
  store i64 %11, ptr %13, align 8, !tbaa !40
  %14 = load ptr, ptr %3, align 8, !tbaa !21
  %15 = getelementptr inbounds nuw %struct.zstream, ptr %14, i32 0, i32 4
  %16 = getelementptr inbounds nuw %struct.z_stream_s, ptr %15, i32 0, i32 8
  store ptr @zlib_mem_alloc, ptr %16, align 8, !tbaa !115
  %17 = load ptr, ptr %3, align 8, !tbaa !21
  %18 = getelementptr inbounds nuw %struct.zstream, ptr %17, i32 0, i32 4
  %19 = getelementptr inbounds nuw %struct.z_stream_s, ptr %18, i32 0, i32 9
  store ptr @zlib_mem_free, ptr %19, align 8, !tbaa !116
  %20 = load ptr, ptr %3, align 8, !tbaa !21
  %21 = getelementptr inbounds nuw %struct.zstream, ptr %20, i32 0, i32 4
  %22 = getelementptr inbounds nuw %struct.z_stream_s, ptr %21, i32 0, i32 10
  store ptr null, ptr %22, align 8, !tbaa !111
  %23 = load ptr, ptr %3, align 8, !tbaa !21
  %24 = getelementptr inbounds nuw %struct.zstream, ptr %23, i32 0, i32 4
  %25 = getelementptr inbounds nuw %struct.z_stream_s, ptr %24, i32 0, i32 6
  store ptr null, ptr %25, align 8, !tbaa !34
  %26 = load ptr, ptr %3, align 8, !tbaa !21
  %27 = getelementptr inbounds nuw %struct.zstream, ptr %26, i32 0, i32 4
  %28 = getelementptr inbounds nuw %struct.z_stream_s, ptr %27, i32 0, i32 0
  store ptr null, ptr %28, align 8, !tbaa !109
  %29 = load ptr, ptr %3, align 8, !tbaa !21
  %30 = getelementptr inbounds nuw %struct.zstream, ptr %29, i32 0, i32 4
  %31 = getelementptr inbounds nuw %struct.z_stream_s, ptr %30, i32 0, i32 1
  store i32 0, ptr %31, align 8, !tbaa !110
  %32 = load ptr, ptr %3, align 8, !tbaa !21
  %33 = getelementptr inbounds nuw %struct.zstream, ptr %32, i32 0, i32 4
  %34 = getelementptr inbounds nuw %struct.z_stream_s, ptr %33, i32 0, i32 3
  store ptr null, ptr %34, align 8, !tbaa !96
  %35 = load ptr, ptr %3, align 8, !tbaa !21
  %36 = getelementptr inbounds nuw %struct.zstream, ptr %35, i32 0, i32 4
  %37 = getelementptr inbounds nuw %struct.z_stream_s, ptr %36, i32 0, i32 4
  store i32 0, ptr %37, align 8, !tbaa !23
  %38 = load ptr, ptr %4, align 8, !tbaa !114
  %39 = load ptr, ptr %3, align 8, !tbaa !21
  %40 = getelementptr inbounds nuw %struct.zstream, ptr %39, i32 0, i32 5
  store ptr %38, ptr %40, align 8, !tbaa !93
  ret void
}

; Function Attrs: nounwind sspstrong uwtable
define internal i64 @rb_inflate_s_inflate(i64 noundef %0, i64 noundef %1) #0 {
  %3 = alloca i64, align 8
  %4 = alloca i64, align 8
  %5 = alloca %struct.zstream, align 8
  %6 = alloca i64, align 8
  %7 = alloca [2 x i64], align 16
  %8 = alloca i32, align 4
  store i64 %0, ptr %3, align 8, !tbaa !6
  store i64 %1, ptr %4, align 8, !tbaa !6
  call void @llvm.lifetime.start.p0(i64 152, ptr %5) #23
  call void @llvm.lifetime.start.p0(i64 8, ptr %6) #23
  call void @llvm.lifetime.start.p0(i64 16, ptr %7) #23
  call void @llvm.lifetime.start.p0(i64 4, ptr %8) #23
  %9 = call i64 @rb_string_value(ptr noundef %4)
  call void @zstream_init(ptr noundef %5, ptr noundef @inflate_funcs)
  %10 = getelementptr inbounds nuw %struct.zstream, ptr %5, i32 0, i32 4
  %11 = call i32 @inflateInit_(ptr noundef %10, ptr noundef @.str.20, i32 noundef 112)
  store i32 %11, ptr %8, align 4, !tbaa !10
  %12 = load i32, ptr %8, align 4, !tbaa !10
  %13 = icmp ne i32 %12, 0
  br i1 %13, label %14, label %19

14:                                               ; preds = %2
  %15 = load i32, ptr %8, align 4, !tbaa !10
  %16 = getelementptr inbounds nuw %struct.zstream, ptr %5, i32 0, i32 4
  %17 = getelementptr inbounds nuw %struct.z_stream_s, ptr %16, i32 0, i32 6
  %18 = load ptr, ptr %17, align 8, !tbaa !34
  call void @raise_zlib_error(i32 noundef %15, ptr noundef %18) #26
  unreachable

19:                                               ; preds = %2
  %20 = getelementptr inbounds nuw %struct.zstream, ptr %5, i32 0, i32 0
  %21 = load i64, ptr %20, align 8, !tbaa !33
  %22 = or i64 %21, 1
  store i64 %22, ptr %20, align 8, !tbaa !33
  %23 = ptrtoint ptr %5 to i64
  %24 = getelementptr inbounds [2 x i64], ptr %7, i64 0, i64 0
  store i64 %23, ptr %24, align 16, !tbaa !6
  %25 = load i64, ptr %4, align 8, !tbaa !6
  %26 = getelementptr inbounds [2 x i64], ptr %7, i64 0, i64 1
  store i64 %25, ptr %26, align 8, !tbaa !6
  %27 = getelementptr inbounds [2 x i64], ptr %7, i64 0, i64 0
  %28 = ptrtoint ptr %27 to i64
  %29 = ptrtoint ptr %5 to i64
  %30 = call i64 @rb_ensure(ptr noundef @inflate_run, i64 noundef %28, ptr noundef @zstream_ensure_end, i64 noundef %29)
  store i64 %30, ptr %6, align 8, !tbaa !6
  %31 = load i64, ptr %6, align 8, !tbaa !6
  call void @llvm.lifetime.end.p0(i64 4, ptr %8) #23
  call void @llvm.lifetime.end.p0(i64 16, ptr %7) #23
  call void @llvm.lifetime.end.p0(i64 8, ptr %6) #23
  call void @llvm.lifetime.end.p0(i64 152, ptr %5) #23
  ret i64 %31
}