; Function Attrs: nounwind sspstrong uwtable
define internal i64 @rb_inflate_s_inflate(i64 %0, i64 noundef %1) #0 {
  %3 = alloca i64, align 8
  %4 = alloca %struct.zstream, align 8
  %5 = alloca [2 x i64], align 16
  store i64 %1, ptr %3, align 8, !tbaa !6
  call void @llvm.lifetime.start.p0(i64 152, ptr nonnull %4) #18
  call void @llvm.lifetime.start.p0(i64 16, ptr nonnull %5) #18
  %6 = call i64 @rb_string_value(ptr noundef nonnull %3) #18
  store i64 0, ptr %4, align 8, !tbaa !42
  %7 = getelementptr inbounds nuw i8, ptr %4, i64 8
  store i64 4, ptr %7, align 8, !tbaa !43
  %8 = getelementptr inbounds nuw i8, ptr %4, i64 16
  store i64 4, ptr %8, align 8, !tbaa !51
  %9 = call i64 @rb_mutex_new() #18
  %10 = getelementptr inbounds nuw i8, ptr %4, i64 24
  store i64 %9, ptr %10, align 8, !tbaa !70
  %11 = getelementptr inbounds nuw i8, ptr %4, i64 32
  %12 = getelementptr inbounds nuw i8, ptr %4, i64 96
  store ptr @zlib_mem_alloc, ptr %12, align 8, !tbaa !71
  %13 = getelementptr inbounds nuw i8, ptr %4, i64 104
  store ptr @zlib_mem_free, ptr %13, align 8, !tbaa !72
  %14 = getelementptr inbounds nuw i8, ptr %4, i64 112
  store ptr null, ptr %14, align 8, !tbaa !73
  %15 = getelementptr inbounds nuw i8, ptr %4, i64 80
  store ptr null, ptr %15, align 8, !tbaa !59
  store ptr null, ptr %11, align 8, !tbaa !74
  %16 = getelementptr inbounds nuw i8, ptr %4, i64 40
  store i32 0, ptr %16, align 8, !tbaa !75
  %17 = getelementptr inbounds nuw i8, ptr %4, i64 56
  store ptr null, ptr %17, align 8, !tbaa !47
  %18 = getelementptr inbounds nuw i8, ptr %4, i64 64
  store i32 0, ptr %18, align 8, !tbaa !36
  %19 = getelementptr inbounds nuw i8, ptr %4, i64 144
  store ptr @inflate_funcs, ptr %19, align 8, !tbaa !56
  %20 = call i32 @inflateInit_(ptr noundef nonnull %11, ptr noundef nonnull @.str.20, i32 noundef 112) #18
  %.not = icmp eq i32 %20, 0
  br i1 %.not, label %23, label %21

21:                                               ; preds = %2
  %22 = load ptr, ptr %15, align 8, !tbaa !59
  call fastcc void @raise_zlib_error(i32 noundef %20, ptr noundef %22) #20
  unreachable

23:                                               ; preds = %2
  %24 = load i64, ptr %4, align 8, !tbaa !42
  %25 = or i64 %24, 1
  store i64 %25, ptr %4, align 8, !tbaa !42
  %26 = ptrtoint ptr %4 to i64
  store i64 %26, ptr %5, align 16, !tbaa !6
  %27 = load i64, ptr %3, align 8, !tbaa !6
  %28 = getelementptr inbounds nuw i8, ptr %5, i64 8
  store i64 %27, ptr %28, align 8, !tbaa !6
  %29 = ptrtoint ptr %5 to i64
  %30 = call i64 @rb_ensure(ptr noundef nonnull @inflate_run, i64 noundef %29, ptr noundef nonnull @zstream_ensure_end, i64 noundef %26) #18
  call void @llvm.lifetime.end.p0(i64 16, ptr nonnull %5) #18
  call void @llvm.lifetime.end.p0(i64 152, ptr nonnull %4) #18
  ret i64 %30
}